target datalayout = "e-m:e-p270:32:32-p271:32:32-p272:64:64-i64:64-i128:128-f80:128-n8:16:32:64-S128"
target triple = "x86_64-pc-linux-gnu"

%struct.SANMVideoContext = type { ptr, %struct.GetByteContext, i32, i32, i32, i32, [256 x i32], [768 x i16], i64, i32, i32, i32, i32, i32, ptr, ptr, ptr, ptr, ptr, ptr, i32, i32, i32, i32, i32, ptr, i32, i32, i64, i64, [256 x i16], [4 x i16], [256 x [16 x i8]], [256 x [64 x i8]], [65536 x i8], [256 x i8], [2 x [256 x [16 x i8]]], i16 }
%struct.GetByteContext = type { ptr, ptr, ptr }

; Function Attrs: cold nounwind optsize uwtable
define internal i32 @init_buffers(ptr noundef %0) #0 {
  %2 = alloca i32, align 4
  %3 = alloca ptr, align 8
  store ptr %0, ptr %3, align 8, !tbaa !29
  %4 = load ptr, ptr %3, align 8, !tbaa !29
  %5 = getelementptr inbounds nuw %struct.SANMVideoContext, ptr %4, i32 0, i32 15
  %6 = load ptr, ptr %3, align 8, !tbaa !29
  %7 = getelementptr inbounds nuw %struct.SANMVideoContext, ptr %6, i32 0, i32 20
  %8 = load ptr, ptr %3, align 8, !tbaa !29
  %9 = getelementptr inbounds nuw %struct.SANMVideoContext, ptr %8, i32 0, i32 29
  %10 = load i64, ptr %9, align 8, !tbaa !61
  call void @av_fast_padded_mallocz(ptr noundef %5, ptr noundef %7, i64 noundef %10)
  %11 = load ptr, ptr %3, align 8, !tbaa !29
  %12 = getelementptr inbounds nuw %struct.SANMVideoContext, ptr %11, i32 0, i32 16
  %13 = load ptr, ptr %3, align 8, !tbaa !29
  %14 = getelementptr inbounds nuw %struct.SANMVideoContext, ptr %13, i32 0, i32 21
  %15 = load ptr, ptr %3, align 8, !tbaa !29
  %16 = getelementptr inbounds nuw %struct.SANMVideoContext, ptr %15, i32 0, i32 29
  %17 = load i64, ptr %16, align 8, !tbaa !61
  call void @av_fast_padded_mallocz(ptr noundef %12, ptr noundef %14, i64 noundef %17)
  %18 = load ptr, ptr %3, align 8, !tbaa !29
  %19 = getelementptr inbounds nuw %struct.SANMVideoContext, ptr %18, i32 0, i32 17
  %20 = load ptr, ptr %3, align 8, !tbaa !29
  %21 = getelementptr inbounds nuw %struct.SANMVideoContext, ptr %20, i32 0, i32 22
  %22 = load ptr, ptr %3, align 8, !tbaa !29
  %23 = getelementptr inbounds nuw %struct.SANMVideoContext, ptr %22, i32 0, i32 29
  %24 = load i64, ptr %23, align 8, !tbaa !61
  call void @av_fast_padded_mallocz(ptr noundef %19, ptr noundef %21, i64 noundef %24)
  %25 = load ptr, ptr %3, align 8, !tbaa !29
  %26 = getelementptr inbounds nuw %struct.SANMVideoContext, ptr %25, i32 0, i32 18
  %27 = load ptr, ptr %3, align 8, !tbaa !29
  %28 = getelementptr inbounds nuw %struct.SANMVideoContext, ptr %27, i32 0, i32 23
  %29 = load ptr, ptr %3, align 8, !tbaa !29
  %30 = getelementptr inbounds nuw %struct.SANMVideoContext, ptr %29, i32 0, i32 29
  %31 = load i64, ptr %30, align 8, !tbaa !61
  call void @av_fast_padded_mallocz(ptr noundef %26, ptr noundef %28, i64 noundef %31)
  %32 = load ptr, ptr %3, align 8, !tbaa !29
  %33 = getelementptr inbounds nuw %struct.SANMVideoContext, ptr %32, i32 0, i32 2
  %34 = load i32, ptr %33, align 8, !tbaa !37
  %35 = icmp ne i32 %34, 0
  br i1 %35, label %44, label %36

36:                                               ; preds = %1
  %37 = load ptr, ptr %3, align 8, !tbaa !29
  %38 = getelementptr inbounds nuw %struct.SANMVideoContext, ptr %37, i32 0, i32 19
  %39 = load ptr, ptr %3, align 8, !tbaa !29
  %40 = getelementptr inbounds nuw %struct.SANMVideoContext, ptr %39, i32 0, i32 24
  %41 = load ptr, ptr %3, align 8, !tbaa !29
  %42 = getelementptr inbounds nuw %struct.SANMVideoContext, ptr %41, i32 0, i32 29
  %43 = load i64, ptr %42, align 8, !tbaa !61
  call void @av_fast_padded_mallocz(ptr noundef %38, ptr noundef %40, i64 noundef %43)
  br label %44

44:                                               ; preds = %36, %1
  %45 = load ptr, ptr %3, align 8, !tbaa !29
  %46 = getelementptr inbounds nuw %struct.SANMVideoContext, ptr %45, i32 0, i32 16
  %47 = load ptr, ptr %46, align 8, !tbaa !85
  %48 = icmp ne ptr %47, null
  br i1 %48, label %49, label %69

49:                                               ; preds = %44
  %50 = load ptr, ptr %3, align 8, !tbaa !29
  %51 = getelementptr inbounds nuw %struct.SANMVideoContext, ptr %50, i32 0, i32 17
  %52 = load ptr, ptr %51, align 8, !tbaa !74
  %53 = icmp ne ptr %52, null
  br i1 %53, label %54, label %69

54:                                               ; preds = %49
  %55 = load ptr, ptr %3, align 8, !tbaa !29
  %56 = getelementptr inbounds nuw %struct.SANMVideoContext, ptr %55, i32 0, i32 18
  %57 = load ptr, ptr %56, align 8, !tbaa !77
  %58 = icmp ne ptr %57, null
  br i1 %58, label %59, label %69

59:                                               ; preds = %54
  %60 = load ptr, ptr %3, align 8, !tbaa !29
  %61 = getelementptr inbounds nuw %struct.SANMVideoContext, ptr %60, i32 0, i32 19
  %62 = load ptr, ptr %61, align 8, !tbaa !59
  %63 = icmp ne ptr %62, null
  br i1 %63, label %71, label %64

64:                                               ; preds = %59
  %65 = load ptr, ptr %3, align 8, !tbaa !29
  %66 = getelementptr inbounds nuw %struct.SANMVideoContext, ptr %65, i32 0, i32 2
  %67 = load i32, ptr %66, align 8, !tbaa !37
  %68 = icmp ne i32 %67, 0
  br i1 %68, label %71, label %69

69:                                               ; preds = %64, %54, %49, %44
  %70 = load ptr, ptr %3, align 8, !tbaa !29
  call void @destroy_buffers(ptr noundef %70)
  store i32 -12, ptr %2, align 4
  br label %72

71:                                               ; preds = %64, %59
  store i32 0, ptr %2, align 4
  br label %72

72:                                               ; preds = %71, %69
  %73 = load i32, ptr %2, align 4
  ret i32 %73
}