; Function Attrs: cold nounwind optsize uwtable
define internal fastcc range(i32 -12, 1) i32 @init_buffers(ptr noundef %0) unnamed_addr #0 {
  %2 = getelementptr inbounds nuw i8, ptr %0, i64 2648
  %3 = getelementptr inbounds nuw i8, ptr %0, i64 2688
  %4 = getelementptr inbounds nuw i8, ptr %0, i64 2736
  %5 = load i64, ptr %4, align 8, !tbaa !43
  tail call void @av_fast_padded_mallocz(ptr noundef nonnull %2, ptr noundef nonnull %3, i64 noundef %5) #12
  %6 = getelementptr inbounds nuw i8, ptr %0, i64 2656
  %7 = getelementptr inbounds nuw i8, ptr %0, i64 2692
  %8 = load i64, ptr %4, align 8, !tbaa !43
  tail call void @av_fast_padded_mallocz(ptr noundef nonnull %6, ptr noundef nonnull %7, i64 noundef %8) #12
  %9 = getelementptr inbounds nuw i8, ptr %0, i64 2664
  %10 = getelementptr inbounds nuw i8, ptr %0, i64 2696
  %11 = load i64, ptr %4, align 8, !tbaa !43
  tail call void @av_fast_padded_mallocz(ptr noundef nonnull %9, ptr noundef nonnull %10, i64 noundef %11) #12
  %12 = getelementptr inbounds nuw i8, ptr %0, i64 2672
  %13 = getelementptr inbounds nuw i8, ptr %0, i64 2700
  %14 = load i64, ptr %4, align 8, !tbaa !43
  tail call void @av_fast_padded_mallocz(ptr noundef nonnull %12, ptr noundef nonnull %13, i64 noundef %14) #12
  %15 = getelementptr inbounds nuw i8, ptr %0, i64 32
  %16 = load i32, ptr %15, align 8, !tbaa !34
  %.not = icmp eq i32 %16, 0
  br i1 %.not, label %17, label %21

17:                                               ; preds = %1
  %18 = getelementptr inbounds nuw i8, ptr %0, i64 2680
  %19 = getelementptr inbounds nuw i8, ptr %0, i64 2704
  %20 = load i64, ptr %4, align 8, !tbaa !43
  tail call void @av_fast_padded_mallocz(ptr noundef nonnull %18, ptr noundef nonnull %19, i64 noundef %20) #12
  br label %21

21:                                               ; preds = %17, %1
  %22 = load ptr, ptr %6, align 8, !tbaa !84
  %.not22 = icmp eq ptr %22, null
  br i1 %.not22, label %32, label %23

23:                                               ; preds = %21
  %24 = load ptr, ptr %9, align 8, !tbaa !81
  %.not23 = icmp eq ptr %24, null
  br i1 %.not23, label %32, label %25

25:                                               ; preds = %23
  %26 = load ptr, ptr %12, align 8, !tbaa !82
  %.not24 = icmp eq ptr %26, null
  br i1 %.not24, label %32, label %27

27:                                               ; preds = %25
  %28 = getelementptr inbounds nuw i8, ptr %0, i64 2680
  %29 = load ptr, ptr %28, align 8, !tbaa !63
  %.not25 = icmp eq ptr %29, null
  br i1 %.not25, label %30, label %33

30:                                               ; preds = %27
  %31 = load i32, ptr %15, align 8, !tbaa !34
  %.not26 = icmp eq i32 %31, 0
  br i1 %.not26, label %32, label %33

32:                                               ; preds = %30, %25, %23, %21
  tail call fastcc void @destroy_buffers(ptr noundef nonnull %0)
  br label %33

33:                                               ; preds = %27, %30, %32
  %.0 = phi i32 [ -12, %32 ], [ 0, %30 ], [ 0, %27 ]
  ret i32 %.0
}